; Function Attrs: mustprogress nounwind uwtable
define dso_local noundef zeroext i1 @_ZN4node6crypto10CipherBase14SetAutoPaddingEb(ptr nocapture noundef nonnull readonly align 8 dereferenceable(76) %this, i1 noundef zeroext %auto_padding) local_unnamed_addr #3 align 2 {
entry:
  %ctx_ = getelementptr inbounds i8, ptr %this, i64 32
  %0 = load ptr, ptr %ctx_, align 8
  %cmp.i.not = icmp eq ptr %0, null
  br i1 %cmp.i.not, label %return, label %if.end

if.end:                                           ; preds = %entry
  %call.i = tail call i32 @ERR_set_mark() #20
  %1 = load ptr, ptr %ctx_, align 8
  %conv = zext i1 %auto_padding to i32
  %call4 = tail call i32 @EVP_CIPHER_CTX_set_padding(ptr noundef %1, i32 noundef %conv) #20
  %tobool5 = icmp ne i32 %call4, 0
  %call.i1 = tail call i32 @ERR_pop_to_mark() #20
  br label %return

return:                                           ; preds = %entry, %if.end
  %retval.0 = phi i1 [ %tobool5, %if.end ], [ false, %entry ]
  ret i1 %retval.0
}